; ModuleID = '15/2325.cpp'
source_filename = "15/2325.cpp"
target datalayout = "e-m:e-p270:32:32-p271:32:32-p272:64:64-i64:64-f80:128-n8:16:32:64-S128"
target triple = "x86_64-pc-linux-gnu"

%"class.std::ios_base::Init" = type { i8 }
%"class.std::basic_istream" = type { i32 (...)**, i64, %"class.std::basic_ios" }
%"class.std::basic_ios" = type { %"class.std::ios_base", %"class.std::basic_ostream"*, i8, i8, %"class.std::basic_streambuf"*, %"class.std::ctype"*, %"class.std::num_put"*, %"class.std::num_get"* }
%"class.std::ios_base" = type { i32 (...)**, i64, i64, i32, i32, i32, %"struct.std::ios_base::_Callback_list"*, %"struct.std::ios_base::_Words", [8 x %"struct.std::ios_base::_Words"], i32, %"struct.std::ios_base::_Words"*, %"class.std::locale" }
%"struct.std::ios_base::_Callback_list" = type { %"struct.std::ios_base::_Callback_list"*, void (i32, %"class.std::ios_base"*, i32)*, i32, i32 }
%"struct.std::ios_base::_Words" = type { i8*, i64 }
%"class.std::locale" = type { %"class.std::locale::_Impl"* }
%"class.std::locale::_Impl" = type { i32, %"class.std::locale::facet"**, i64, %"class.std::locale::facet"**, i8** }
%"class.std::locale::facet" = type <{ i32 (...)**, i32, [4 x i8] }>
%"class.std::basic_ostream" = type { i32 (...)**, %"class.std::basic_ios" }
%"class.std::basic_streambuf" = type { i32 (...)**, i8*, i8*, i8*, i8*, i8*, i8*, %"class.std::locale" }
%"class.std::ctype" = type <{ %"class.std::locale::facet.base", [4 x i8], %struct.__locale_struct*, i8, [7 x i8], i32*, i32*, i16*, i8, [256 x i8], [256 x i8], i8, [6 x i8] }>
%"class.std::locale::facet.base" = type <{ i32 (...)**, i32 }>
%struct.__locale_struct = type { [13 x %struct.__locale_data*], i16*, i32*, i32*, [13 x i8*] }
%struct.__locale_data = type opaque
%"class.std::num_put" = type { %"class.std::locale::facet.base", [4 x i8] }
%"class.std::num_get" = type { %"class.std::locale::facet.base", [4 x i8] }

@_ZStL8__ioinit = internal global %"class.std::ios_base::Init" zeroinitializer, align 1
@__dso_handle = external hidden global i8
@a = dso_local global [1005 x [1005 x i32]] zeroinitializer, align 16
@_ZSt3cin = external dso_local global %"class.std::basic_istream", align 8
@_ZSt4cout = external dso_local global %"class.std::basic_ostream", align 8
@llvm.global_ctors = appending global [1 x { i32, void ()*, i8* }] [{ i32, void ()*, i8* } { i32 65535, void ()* @_GLOBAL__sub_I_2325.cpp, i8* null }]

; Function Attrs: noinline uwtable
define internal void @__cxx_global_var_init() #0 section ".text.startup" {
  call void @_ZNSt8ios_base4InitC1Ev(%"class.std::ios_base::Init"* @_ZStL8__ioinit)
  %1 = call i32 @__cxa_atexit(void (i8*)* bitcast (void (%"class.std::ios_base::Init"*)* @_ZNSt8ios_base4InitD1Ev to void (i8*)*), i8* getelementptr inbounds (%"class.std::ios_base::Init", %"class.std::ios_base::Init"* @_ZStL8__ioinit, i32 0, i32 0), i8* @__dso_handle) #3
  ret void
}

declare dso_local void @_ZNSt8ios_base4InitC1Ev(%"class.std::ios_base::Init"*) unnamed_addr #1

; Function Attrs: nounwind
declare dso_local void @_ZNSt8ios_base4InitD1Ev(%"class.std::ios_base::Init"*) unnamed_addr #2

; Function Attrs: nounwind
declare dso_local i32 @__cxa_atexit(void (i8*)*, i8*, i8*) #3

; Function Attrs: noinline norecurse uwtable
define dso_local i32 @main() #4 {
  %1 = alloca i32, align 4
  %2 = alloca i32, align 4
  %3 = alloca i32, align 4
  %4 = alloca i32, align 4
  %5 = alloca i32, align 4
  %6 = alloca i32, align 4
  %7 = alloca i32, align 4
  %8 = alloca i32, align 4
  %9 = alloca i32, align 4
  %10 = alloca i32, align 4
  %11 = alloca i32, align 4
  %12 = alloca i32, align 4
  %13 = alloca i32, align 4
  %14 = alloca i32, align 4
  %15 = alloca i32, align 4
  store i32 0, i32* %1, align 4
  %16 = call dereferenceable(280) %"class.std::basic_istream"* @_ZNSirsERi(%"class.std::basic_istream"* @_ZSt3cin, i32* dereferenceable(4) %2)
  store i32 0, i32* %3, align 4
  br label %17

17:                                               ; preds = %35, %0
  %18 = load i32, i32* %3, align 4
  %19 = icmp sle i32 %18, 1004
  br i1 %19, label %20, label %38

20:                                               ; preds = %17
  store i32 0, i32* %4, align 4
  br label %21

21:                                               ; preds = %31, %20
  %22 = load i32, i32* %4, align 4
  %23 = icmp sle i32 %22, 1004
  br i1 %23, label %24, label %34

24:                                               ; preds = %21
  %25 = load i32, i32* %3, align 4
  %26 = sext i32 %25 to i64
  %27 = getelementptr inbounds [1005 x [1005 x i32]], [1005 x [1005 x i32]]* @a, i64 0, i64 %26
  %28 = load i32, i32* %4, align 4
  %29 = sext i32 %28 to i64
  %30 = getelementptr inbounds [1005 x i32], [1005 x i32]* %27, i64 0, i64 %29
  store i32 255, i32* %30, align 4
  br label %31

31:                                               ; preds = %24
  %32 = load i32, i32* %4, align 4
  %33 = add nsw i32 %32, 1
  store i32 %33, i32* %4, align 4
  br label %21

34:                                               ; preds = %21
  br label %35

35:                                               ; preds = %34
  %36 = load i32, i32* %3, align 4
  %37 = add nsw i32 %36, 1
  store i32 %37, i32* %3, align 4
  br label %17

38:                                               ; preds = %17
  store i32 1, i32* %5, align 4
  br label %39

39:                                               ; preds = %60, %38
  %40 = load i32, i32* %5, align 4
  %41 = load i32, i32* %2, align 4
  %42 = icmp sle i32 %40, %41
  br i1 %42, label %43, label %63

43:                                               ; preds = %39
  store i32 1, i32* %6, align 4
  br label %44

44:                                               ; preds = %56, %43
  %45 = load i32, i32* %6, align 4
  %46 = load i32, i32* %2, align 4
  %47 = icmp sle i32 %45, %46
  br i1 %47, label %48, label %59

48:                                               ; preds = %44
  %49 = load i32, i32* %5, align 4
  %50 = sext i32 %49 to i64
  %51 = getelementptr inbounds [1005 x [1005 x i32]], [1005 x [1005 x i32]]* @a, i64 0, i64 %50
  %52 = load i32, i32* %6, align 4
  %53 = sext i32 %52 to i64
  %54 = getelementptr inbounds [1005 x i32], [1005 x i32]* %51, i64 0, i64 %53
  %55 = call dereferenceable(280) %"class.std::basic_istream"* @_ZNSirsERi(%"class.std::basic_istream"* @_ZSt3cin, i32* dereferenceable(4) %54)
  br label %56

56:                                               ; preds = %48
  %57 = load i32, i32* %6, align 4
  %58 = add nsw i32 %57, 1
  store i32 %58, i32* %6, align 4
  br label %44

59:                                               ; preds = %44
  br label %60

60:                                               ; preds = %59
  %61 = load i32, i32* %5, align 4
  %62 = add nsw i32 %61, 1
  store i32 %62, i32* %5, align 4
  br label %39

63:                                               ; preds = %39
  store i32 0, i32* %7, align 4
  store i32 0, i32* %8, align 4
  store i32 0, i32* %9, align 4
  store i32 0, i32* %10, align 4
  store i32 1, i32* %11, align 4
  br label %64

64:                                               ; preds = %94, %63
  %65 = load i32, i32* %11, align 4
  %66 = load i32, i32* %2, align 4
  %67 = icmp sle i32 %65, %66
  br i1 %67, label %68, label %97

68:                                               ; preds = %64
  store i32 1, i32* %12, align 4
  br label %69

69:                                               ; preds = %86, %68
  %70 = load i32, i32* %12, align 4
  %71 = load i32, i32* %2, align 4
  %72 = icmp sle i32 %70, %71
  br i1 %72, label %73, label %89

73:                                               ; preds = %69
  %74 = load i32, i32* %11, align 4
  %75 = sext i32 %74 to i64
  %76 = getelementptr inbounds [1005 x [1005 x i32]], [1005 x [1005 x i32]]* @a, i64 0, i64 %75
  %77 = load i32, i32* %12, align 4
  %78 = sext i32 %77 to i64
  %79 = getelementptr inbounds [1005 x i32], [1005 x i32]* %76, i64 0, i64 %78
  %80 = load i32, i32* %79, align 4
  %81 = icmp eq i32 %80, 0
  br i1 %81, label %82, label %85

82:                                               ; preds = %73
  %83 = load i32, i32* %11, align 4
  store i32 %83, i32* %7, align 4
  %84 = load i32, i32* %12, align 4
  store i32 %84, i32* %8, align 4
  br label %89

85:                                               ; preds = %73
  br label %86

86:                                               ; preds = %85
  %87 = load i32, i32* %12, align 4
  %88 = add nsw i32 %87, 1
  store i32 %88, i32* %12, align 4
  br label %69

89:                                               ; preds = %82, %69
  %90 = load i32, i32* %7, align 4
  %91 = icmp ne i32 %90, 0
  br i1 %91, label %92, label %93

92:                                               ; preds = %89
  br label %97

93:                                               ; preds = %89
  br label %94

94:                                               ; preds = %93
  %95 = load i32, i32* %11, align 4
  %96 = add nsw i32 %95, 1
  store i32 %96, i32* %11, align 4
  br label %64

97:                                               ; preds = %92, %64
  %98 = load i32, i32* %2, align 4
  store i32 %98, i32* %13, align 4
  br label %99

99:                                               ; preds = %128, %97
  %100 = load i32, i32* %13, align 4
  %101 = icmp sge i32 %100, 1
  br i1 %101, label %102, label %131

102:                                              ; preds = %99
  %103 = load i32, i32* %2, align 4
  store i32 %103, i32* %14, align 4
  br label %104

104:                                              ; preds = %120, %102
  %105 = load i32, i32* %14, align 4
  %106 = icmp sge i32 %105, 1
  br i1 %106, label %107, label %123

107:                                              ; preds = %104
  %108 = load i32, i32* %13, align 4
  %109 = sext i32 %108 to i64
  %110 = getelementptr inbounds [1005 x [1005 x i32]], [1005 x [1005 x i32]]* @a, i64 0, i64 %109
  %111 = load i32, i32* %14, align 4
  %112 = sext i32 %111 to i64
  %113 = getelementptr inbounds [1005 x i32], [1005 x i32]* %110, i64 0, i64 %112
  %114 = load i32, i32* %113, align 4
  %115 = icmp eq i32 %114, 0
  br i1 %115, label %116, label %119

116:                                              ; preds = %107
  %117 = load i32, i32* %13, align 4
  store i32 %117, i32* %9, align 4
  %118 = load i32, i32* %14, align 4
  store i32 %118, i32* %10, align 4
  br label %123

119:                                              ; preds = %107
  br label %120

120:                                              ; preds = %119
  %121 = load i32, i32* %14, align 4
  %122 = add nsw i32 %121, -1
  store i32 %122, i32* %14, align 4
  br label %104

123:                                              ; preds = %116, %104
  %124 = load i32, i32* %9, align 4
  %125 = icmp ne i32 %124, 0
  br i1 %125, label %126, label %127

126:                                              ; preds = %123
  br label %131

127:                                              ; preds = %123
  br label %128

128:                                              ; preds = %127
  %129 = load i32, i32* %13, align 4
  %130 = add nsw i32 %129, -1
  store i32 %130, i32* %13, align 4
  br label %99

131:                                              ; preds = %126, %99
  %132 = load i32, i32* %9, align 4
  %133 = load i32, i32* %7, align 4
  %134 = sub nsw i32 %132, %133
  %135 = sub nsw i32 %134, 1
  %136 = load i32, i32* %10, align 4
  %137 = load i32, i32* %8, align 4
  %138 = sub nsw i32 %136, %137
  %139 = sub nsw i32 %138, 1
  %140 = mul nsw i32 %135, %139
  store i32 %140, i32* %15, align 4
  %141 = load i32, i32* %15, align 4
  %142 = call dereferenceable(272) %"class.std::basic_ostream"* @_ZNSolsEi(%"class.std::basic_ostream"* @_ZSt4cout, i32 %141)
  ret i32 0
}

declare dso_local dereferenceable(280) %"class.std::basic_istream"* @_ZNSirsERi(%"class.std::basic_istream"*, i32* dereferenceable(4)) #1

declare dso_local dereferenceable(272) %"class.std::basic_ostream"* @_ZNSolsEi(%"class.std::basic_ostream"*, i32) #1

; Function Attrs: noinline uwtable
define internal void @_GLOBAL__sub_I_2325.cpp() #0 section ".text.startup" {
  call void @__cxx_global_var_init()
  ret void
}


!llvm.module.flags = !{!0}
!llvm.ident = !{!1}

!0 = !{i32 1, !"wchar_size", i32 4}
!1 = !{!"clang version 10.0.0-4ubuntu1 "}
